ARM GAS  C:\Users\Gaetano\AppData\Local\Temp\ccBLkhae.s 			page 1


   1              		.syntax unified
   2              		.cpu cortex-m4
   3              		.fpu softvfp
   4              		.eabi_attribute 20, 1
   5              		.eabi_attribute 21, 1
   6              		.eabi_attribute 23, 3
   7              		.eabi_attribute 24, 1
   8              		.eabi_attribute 25, 1
   9              		.eabi_attribute 26, 1
  10              		.eabi_attribute 30, 2
  11              		.eabi_attribute 34, 1
  12              		.eabi_attribute 18, 4
  13              		.thumb
  14              		.file	"main.c"
  15              		.text
  16              	.Ltext0:
  17              		.cfi_sections	.debug_frame
  18              		.section	.text.Thread5,"ax",%progbits
  19              		.align	2
  20              		.p2align 4,,15
  21              		.thumb
  22              		.thumb_func
  23              		.type	Thread5, %function
  24              	Thread5:
  25              	.LFB122:
  26              		.file 1 "main.c"
  27              		.loc 1 179 0
  28              		.cfi_startproc
  29              		@ args = 0, pretend = 0, frame = 0
  30              		@ frame_needed = 0, uses_anonymous_args = 0
  31              	.LVL0:
  32              		.loc 1 181 0
  33 0000 2D4B     		ldr	r3, .L13
  34 0002 2E4A     		ldr	r2, .L13+4
  35 0004 9869     		ldr	r0, [r3, #24]
  36              	.LVL1:
  37              		.loc 1 179 0
  38 0006 2DE9F047 		push	{r4, r5, r6, r7, r8, r9, sl, lr}
  39              	.LCFI0:
  40              		.cfi_def_cfa_offset 32
  41              		.cfi_offset 4, -32
  42              		.cfi_offset 5, -28
  43              		.cfi_offset 6, -24
  44              		.cfi_offset 7, -20
  45              		.cfi_offset 8, -16
  46              		.cfi_offset 9, -12
  47              		.cfi_offset 10, -8
  48              		.cfi_offset 14, -4
  49              		.loc 1 181 0
  50 000a 8261     		str	r2, [r0, #24]
  51              		.loc 1 184 0
  52 000c 4FF48060 		mov	r0, #1024
  53 0010 C4F60000 		movt	r0, 18432
  54 0014 1021     		movs	r1, #16
  55 0016 4FF48172 		mov	r2, #258
  56 001a FFF7FEFF 		bl	_pal_lld_setgroupmode
  57              	.LVL2:
ARM GAS  C:\Users\Gaetano\AppData\Local\Temp\ccBLkhae.s 			page 2


  58              		.loc 1 185 0
  59 001e 4FF44060 		mov	r0, #3072
  60 0022 C4F60000 		movt	r0, 18432
  61 0026 2021     		movs	r1, #32
  62 0028 0022     		movs	r2, #0
  63 002a FFF7FEFF 		bl	_pal_lld_setgroupmode
  64              	.LVL3:
  65              		.loc 1 187 0
  66 002e 4FF40060 		mov	r0, #2048
  67 0032 C4F60000 		movt	r0, 18432
  68 0036 4FF40041 		mov	r1, #32768
  69 003a 0122     		movs	r2, #1
  70 003c 204C     		ldr	r4, .L13+8
  71 003e 214E     		ldr	r6, .L13+12
  72 0040 FFF7FEFF 		bl	_pal_lld_setgroupmode
  73              	.LVL4:
  74              		.loc 1 195 0
  75 0044 4FF44065 		mov	r5, #3072
  76              		.loc 1 188 0
  77 0048 1F48     		ldr	r0, .L13+16
  78 004a 2049     		ldr	r1, .L13+20
  79              		.loc 1 201 0
  80 004c 4FF40067 		mov	r7, #2048
  81              		.loc 1 188 0
  82 0050 FFF7FEFF 		bl	pwmStart
  83              	.LVL5:
  84              		.loc 1 194 0
  85 0054 A046     		mov	r8, r4
  86 0056 4FF00009 		mov	r9, #0
  87              		.loc 1 195 0
  88 005a C4F60005 		movt	r5, 18432
  89              		.loc 1 201 0
  90 005e C4F60007 		movt	r7, 18432
  91 0062 4FF4004A 		mov	sl, #32768
  92 0066 04E0     		b	.L6
  93              	.LVL6:
  94              	.L5:
  95              		.loc 1 199 0
  96 0068 3168     		ldr	r1, [r6, #0]
  97 006a F1B1     		cbz	r1, .L3
  98              	.LVL7:
  99              	.L4:
 100              		.loc 1 208 0
 101 006c 3C20     		movs	r0, #60
 102 006e FFF7FEFF 		bl	chThdSleep
 103              	.LVL8:
 104              	.L6:
 105              		.loc 1 194 0
 106 0072 0021     		movs	r1, #0
 107 0074 1448     		ldr	r0, .L13+16
 108 0076 2288     		ldrh	r2, [r4, #0]
 109 0078 FFF7FEFF 		bl	pwmEnableChannel
 110              	.LVL9:
 111              		.loc 1 197 0
 112 007c 2368     		ldr	r3, [r4, #0]
 113              		.loc 1 195 0
 114 007e 2969     		ldr	r1, [r5, #16]
ARM GAS  C:\Users\Gaetano\AppData\Local\Temp\ccBLkhae.s 			page 3


 115              		.loc 1 197 0
 116 0080 B3F5FA6F 		cmp	r3, #2000
 117              		.loc 1 195 0
 118 0084 C1F34010 		ubfx	r0, r1, #5, #1
 119              	.LVL10:
 120              		.loc 1 197 0
 121 0088 0BD0     		beq	.L12
 122              		.loc 1 204 0
 123 008a 03F59672 		add	r2, r3, #300
 124              		.loc 1 198 0
 125 008e 0028     		cmp	r0, #0
 126 0090 EAD1     		bne	.L5
 127              		.loc 1 198 0 is_stmt 0 discriminator 1
 128 0092 0123     		movs	r3, #1
 129              		.loc 1 205 0 is_stmt 1 discriminator 1
 130 0094 4FF00040 		mov	r0, #-2147483648
 131              	.LVL11:
 132              		.loc 1 198 0 discriminator 1
 133 0098 3360     		str	r3, [r6, #0]
 134              		.loc 1 204 0 discriminator 1
 135 009a C8F80020 		str	r2, [r8, #0]
 136              		.loc 1 205 0 discriminator 1
 137 009e B861     		str	r0, [r7, #24]
 138 00a0 E4E7     		b	.L4
 139              	.LVL12:
 140              	.L12:
 141              		.loc 1 197 0 discriminator 1
 142 00a2 C6F80090 		str	r9, [r6, #0]
 143              		.loc 1 199 0 discriminator 1
 144 00a6 0028     		cmp	r0, #0
 145 00a8 E0D0     		beq	.L4
 146              	.L3:
 147              		.loc 1 200 0
 148 00aa A3F59672 		sub	r2, r3, #300
 149 00ae 2260     		str	r2, [r4, #0]
 150              		.loc 1 201 0
 151 00b0 C7F818A0 		str	sl, [r7, #24]
 152 00b4 DAE7     		b	.L4
 153              	.L14:
 154 00b6 00BF     		.align	2
 155              	.L13:
 156 00b8 00000000 		.word	rlist
 157 00bc 00000000 		.word	.LC0
 158 00c0 00000000 		.word	.LANCHOR1
 159 00c4 00000000 		.word	.LANCHOR2
 160 00c8 00000000 		.word	PWMD3
 161 00cc 00000000 		.word	.LANCHOR0
 162              		.cfi_endproc
 163              	.LFE122:
 164              		.size	Thread5, .-Thread5
 165              		.section	.text.Thread4,"ax",%progbits
 166              		.align	2
 167              		.p2align 4,,15
 168              		.thumb
 169              		.thumb_func
 170              		.type	Thread4, %function
 171              	Thread4:
ARM GAS  C:\Users\Gaetano\AppData\Local\Temp\ccBLkhae.s 			page 4


 172              	.LFB121:
 173              		.loc 1 141 0
 174              		.cfi_startproc
 175              		@ args = 0, pretend = 0, frame = 0
 176              		@ frame_needed = 0, uses_anonymous_args = 0
 177              	.LVL13:
 178              		.loc 1 143 0
 179 0000 2E4B     		ldr	r3, .L26
 180 0002 2F4A     		ldr	r2, .L26+4
 181 0004 9869     		ldr	r0, [r3, #24]
 182              	.LVL14:
 183              		.loc 1 141 0
 184 0006 2DE9F047 		push	{r4, r5, r6, r7, r8, r9, sl, lr}
 185              	.LCFI1:
 186              		.cfi_def_cfa_offset 32
 187              		.cfi_offset 4, -32
 188              		.cfi_offset 5, -28
 189              		.cfi_offset 6, -24
 190              		.cfi_offset 7, -20
 191              		.cfi_offset 8, -16
 192              		.cfi_offset 9, -12
 193              		.cfi_offset 10, -8
 194              		.cfi_offset 14, -4
 195              		.loc 1 143 0
 196 000a 8261     		str	r2, [r0, #24]
 197              		.loc 1 146 0
 198 000c 4FF48060 		mov	r0, #1024
 199 0010 C4F60000 		movt	r0, 18432
 200 0014 8021     		movs	r1, #128
 201 0016 4FF48172 		mov	r2, #258
 202 001a FFF7FEFF 		bl	_pal_lld_setgroupmode
 203              	.LVL15:
 204              		.loc 1 147 0
 205 001e 4FF44060 		mov	r0, #3072
 206 0022 C4F60000 		movt	r0, 18432
 207 0026 1021     		movs	r1, #16
 208 0028 0022     		movs	r2, #0
 209 002a FFF7FEFF 		bl	_pal_lld_setgroupmode
 210              	.LVL16:
 211              		.loc 1 149 0
 212 002e 4FF40060 		mov	r0, #2048
 213 0032 C4F60000 		movt	r0, 18432
 214 0036 4FF40041 		mov	r1, #32768
 215 003a 0122     		movs	r2, #1
 216 003c 214C     		ldr	r4, .L26+8
 217 003e 224F     		ldr	r7, .L26+12
 218 0040 FFF7FEFF 		bl	_pal_lld_setgroupmode
 219              	.LVL17:
 220              		.loc 1 157 0
 221 0044 4FF44065 		mov	r5, #3072
 222              		.loc 1 150 0
 223 0048 2048     		ldr	r0, .L26+16
 224 004a 2149     		ldr	r1, .L26+20
 225              		.loc 1 163 0
 226 004c 4FF40068 		mov	r8, #2048
 227              		.loc 1 150 0
 228 0050 FFF7FEFF 		bl	pwmStart
ARM GAS  C:\Users\Gaetano\AppData\Local\Temp\ccBLkhae.s 			page 5


 229              	.LVL18:
 230              		.loc 1 156 0
 231 0054 A246     		mov	sl, r4
 232 0056 4FF00109 		mov	r9, #1
 233              		.loc 1 157 0
 234 005a C4F60005 		movt	r5, 18432
 235              		.loc 1 159 0
 236 005e 40F2A466 		movw	r6, #1700
 237              		.loc 1 163 0
 238 0062 C4F60008 		movt	r8, 18432
 239 0066 04E0     		b	.L20
 240              	.LVL19:
 241              	.L19:
 242              		.loc 1 161 0
 243 0068 3968     		ldr	r1, [r7, #0]
 244 006a F1B1     		cbz	r1, .L17
 245              	.LVL20:
 246              	.L18:
 247              		.loc 1 170 0
 248 006c 3C20     		movs	r0, #60
 249 006e FFF7FEFF 		bl	chThdSleep
 250              	.LVL21:
 251              	.L20:
 252              		.loc 1 156 0
 253 0072 0121     		movs	r1, #1
 254 0074 1548     		ldr	r0, .L26+16
 255 0076 2288     		ldrh	r2, [r4, #0]
 256 0078 FFF7FEFF 		bl	pwmEnableChannel
 257              	.LVL22:
 258              		.loc 1 159 0
 259 007c 2368     		ldr	r3, [r4, #0]
 260              		.loc 1 157 0
 261 007e 2969     		ldr	r1, [r5, #16]
 262              		.loc 1 159 0
 263 0080 B342     		cmp	r3, r6
 264              		.loc 1 157 0
 265 0082 C1F30010 		ubfx	r0, r1, #4, #1
 266              	.LVL23:
 267              		.loc 1 159 0
 268 0086 0CD0     		beq	.L25
 269              		.loc 1 166 0
 270 0088 03F59672 		add	r2, r3, #300
 271              		.loc 1 160 0
 272 008c 0028     		cmp	r0, #0
 273 008e EBD1     		bne	.L19
 274              		.loc 1 167 0 discriminator 1
 275 0090 4FF00043 		mov	r3, #-2147483648
 276              		.loc 1 166 0 discriminator 1
 277 0094 CAF80020 		str	r2, [sl, #0]
 278              		.loc 1 160 0 discriminator 1
 279 0098 C7F80090 		str	r9, [r7, #0]
 280              		.loc 1 167 0 discriminator 1
 281 009c C8F81830 		str	r3, [r8, #24]
 282 00a0 E4E7     		b	.L18
 283              	.L25:
 284              		.loc 1 159 0 discriminator 1
 285 00a2 0022     		movs	r2, #0
ARM GAS  C:\Users\Gaetano\AppData\Local\Temp\ccBLkhae.s 			page 6


 286 00a4 3A60     		str	r2, [r7, #0]
 287              		.loc 1 161 0 discriminator 1
 288 00a6 0028     		cmp	r0, #0
 289 00a8 E0D0     		beq	.L18
 290              	.L17:
 291              		.loc 1 162 0
 292 00aa A3F59670 		sub	r0, r3, #300
 293              	.LVL24:
 294              		.loc 1 163 0
 295 00ae 4FF40041 		mov	r1, #32768
 296              		.loc 1 162 0
 297 00b2 2060     		str	r0, [r4, #0]
 298              		.loc 1 163 0
 299 00b4 C8F81810 		str	r1, [r8, #24]
 300 00b8 D8E7     		b	.L18
 301              	.L27:
 302 00ba 00BF     		.align	2
 303              	.L26:
 304 00bc 00000000 		.word	rlist
 305 00c0 08000000 		.word	.LC1
 306 00c4 00000000 		.word	.LANCHOR3
 307 00c8 00000000 		.word	.LANCHOR4
 308 00cc 00000000 		.word	PWMD4
 309 00d0 00000000 		.word	.LANCHOR0
 310              		.cfi_endproc
 311              	.LFE121:
 312              		.size	Thread4, .-Thread4
 313 00d4 AFF30080 		.section	.text.Thread3,"ax",%progbits
 313      AFF30080 
 313      AFF30080 
 314              		.align	2
 315              		.p2align 4,,15
 316              		.thumb
 317              		.thumb_func
 318              		.type	Thread3, %function
 319              	Thread3:
 320              	.LFB120:
 321              		.loc 1 103 0
 322              		.cfi_startproc
 323              		@ args = 0, pretend = 0, frame = 0
 324              		@ frame_needed = 0, uses_anonymous_args = 0
 325              	.LVL25:
 326              		.loc 1 105 0
 327 0000 2D4B     		ldr	r3, .L39
 328 0002 2E4A     		ldr	r2, .L39+4
 329 0004 9869     		ldr	r0, [r3, #24]
 330              	.LVL26:
 331              		.loc 1 103 0
 332 0006 2DE9F047 		push	{r4, r5, r6, r7, r8, r9, sl, lr}
 333              	.LCFI2:
 334              		.cfi_def_cfa_offset 32
 335              		.cfi_offset 4, -32
 336              		.cfi_offset 5, -28
 337              		.cfi_offset 6, -24
 338              		.cfi_offset 7, -20
 339              		.cfi_offset 8, -16
 340              		.cfi_offset 9, -12
ARM GAS  C:\Users\Gaetano\AppData\Local\Temp\ccBLkhae.s 			page 7


 341              		.cfi_offset 10, -8
 342              		.cfi_offset 14, -4
 343              		.loc 1 105 0
 344 000a 8261     		str	r2, [r0, #24]
 345              		.loc 1 108 0
 346 000c 4FF48060 		mov	r0, #1024
 347 0010 C4F60000 		movt	r0, 18432
 348 0014 4021     		movs	r1, #64
 349 0016 4FF48172 		mov	r2, #258
 350 001a FFF7FEFF 		bl	_pal_lld_setgroupmode
 351              	.LVL27:
 352              		.loc 1 109 0
 353 001e 4FF44060 		mov	r0, #3072
 354 0022 C4F60000 		movt	r0, 18432
 355 0026 0821     		movs	r1, #8
 356 0028 0022     		movs	r2, #0
 357 002a FFF7FEFF 		bl	_pal_lld_setgroupmode
 358              	.LVL28:
 359              		.loc 1 111 0
 360 002e 4FF40060 		mov	r0, #2048
 361 0032 C4F60000 		movt	r0, 18432
 362 0036 4FF40041 		mov	r1, #32768
 363 003a 0122     		movs	r2, #1
 364 003c 204C     		ldr	r4, .L39+8
 365 003e 214E     		ldr	r6, .L39+12
 366 0040 FFF7FEFF 		bl	_pal_lld_setgroupmode
 367              	.LVL29:
 368              		.loc 1 119 0
 369 0044 4FF44065 		mov	r5, #3072
 370              		.loc 1 112 0
 371 0048 1F48     		ldr	r0, .L39+16
 372 004a 2049     		ldr	r1, .L39+20
 373              		.loc 1 125 0
 374 004c 4FF40067 		mov	r7, #2048
 375              		.loc 1 112 0
 376 0050 FFF7FEFF 		bl	pwmStart
 377              	.LVL30:
 378              		.loc 1 118 0
 379 0054 A046     		mov	r8, r4
 380 0056 4FF00009 		mov	r9, #0
 381              		.loc 1 119 0
 382 005a C4F60005 		movt	r5, 18432
 383              		.loc 1 125 0
 384 005e C4F60007 		movt	r7, 18432
 385 0062 4FF4004A 		mov	sl, #32768
 386 0066 04E0     		b	.L33
 387              	.LVL31:
 388              	.L32:
 389              		.loc 1 123 0
 390 0068 3168     		ldr	r1, [r6, #0]
 391 006a F1B1     		cbz	r1, .L30
 392              	.LVL32:
 393              	.L31:
 394              		.loc 1 132 0
 395 006c 6420     		movs	r0, #100
 396 006e FFF7FEFF 		bl	chThdSleep
 397              	.LVL33:
ARM GAS  C:\Users\Gaetano\AppData\Local\Temp\ccBLkhae.s 			page 8


 398              	.L33:
 399              		.loc 1 118 0
 400 0072 0021     		movs	r1, #0
 401 0074 1448     		ldr	r0, .L39+16
 402 0076 2288     		ldrh	r2, [r4, #0]
 403 0078 FFF7FEFF 		bl	pwmEnableChannel
 404              	.LVL34:
 405              		.loc 1 121 0
 406 007c 2368     		ldr	r3, [r4, #0]
 407              		.loc 1 119 0
 408 007e 2969     		ldr	r1, [r5, #16]
 409              		.loc 1 121 0
 410 0080 B3F52F7F 		cmp	r3, #700
 411              		.loc 1 119 0
 412 0084 C1F3C000 		ubfx	r0, r1, #3, #1
 413              	.LVL35:
 414              		.loc 1 121 0
 415 0088 0BD0     		beq	.L38
 416              		.loc 1 128 0
 417 008a A3F52F72 		sub	r2, r3, #700
 418              		.loc 1 122 0
 419 008e 0028     		cmp	r0, #0
 420 0090 EAD1     		bne	.L32
 421              		.loc 1 122 0 is_stmt 0 discriminator 1
 422 0092 0123     		movs	r3, #1
 423              		.loc 1 129 0 is_stmt 1 discriminator 1
 424 0094 4FF00040 		mov	r0, #-2147483648
 425              	.LVL36:
 426              		.loc 1 122 0 discriminator 1
 427 0098 3360     		str	r3, [r6, #0]
 428              		.loc 1 128 0 discriminator 1
 429 009a C8F80020 		str	r2, [r8, #0]
 430              		.loc 1 129 0 discriminator 1
 431 009e B861     		str	r0, [r7, #24]
 432 00a0 E4E7     		b	.L31
 433              	.LVL37:
 434              	.L38:
 435              		.loc 1 121 0 discriminator 1
 436 00a2 C6F80090 		str	r9, [r6, #0]
 437              		.loc 1 123 0 discriminator 1
 438 00a6 0028     		cmp	r0, #0
 439 00a8 E0D0     		beq	.L31
 440              	.L30:
 441              		.loc 1 124 0
 442 00aa 03F52F72 		add	r2, r3, #700
 443 00ae 2260     		str	r2, [r4, #0]
 444              		.loc 1 125 0
 445 00b0 C7F818A0 		str	sl, [r7, #24]
 446 00b4 DAE7     		b	.L31
 447              	.L40:
 448 00b6 00BF     		.align	2
 449              	.L39:
 450 00b8 00000000 		.word	rlist
 451 00bc 10000000 		.word	.LC2
 452 00c0 00000000 		.word	.LANCHOR5
 453 00c4 00000000 		.word	.LANCHOR6
 454 00c8 00000000 		.word	PWMD4
ARM GAS  C:\Users\Gaetano\AppData\Local\Temp\ccBLkhae.s 			page 9


 455 00cc 00000000 		.word	.LANCHOR0
 456              		.cfi_endproc
 457              	.LFE120:
 458              		.size	Thread3, .-Thread3
 459              		.section	.text.Thread2,"ax",%progbits
 460              		.align	2
 461              		.p2align 4,,15
 462              		.thumb
 463              		.thumb_func
 464              		.type	Thread2, %function
 465              	Thread2:
 466              	.LFB119:
 467              		.loc 1 65 0
 468              		.cfi_startproc
 469              		@ args = 0, pretend = 0, frame = 0
 470              		@ frame_needed = 0, uses_anonymous_args = 0
 471              	.LVL38:
 472 0000 2DE9F843 		push	{r3, r4, r5, r6, r7, r8, r9, lr}
 473              	.LCFI3:
 474              		.cfi_def_cfa_offset 32
 475              		.cfi_offset 3, -32
 476              		.cfi_offset 4, -28
 477              		.cfi_offset 5, -24
 478              		.cfi_offset 6, -20
 479              		.cfi_offset 7, -16
 480              		.cfi_offset 8, -12
 481              		.cfi_offset 9, -8
 482              		.cfi_offset 14, -4
 483              		.loc 1 67 0
 484 0004 2A4B     		ldr	r3, .L55
 485 0006 2B4A     		ldr	r2, .L55+4
 486 0008 9869     		ldr	r0, [r3, #24]
 487              	.LVL39:
 488 000a 2B4C     		ldr	r4, .L55+8
 489 000c 8261     		str	r2, [r0, #24]
 490              		.loc 1 70 0
 491 000e 4FF48060 		mov	r0, #1024
 492 0012 C4F60000 		movt	r0, 18432
 493 0016 4FF40071 		mov	r1, #512
 494 001a 4FF48172 		mov	r2, #258
 495 001e FFF7FEFF 		bl	_pal_lld_setgroupmode
 496              	.LVL40:
 497              		.loc 1 71 0
 498 0022 4FF44060 		mov	r0, #3072
 499 0026 C4F60000 		movt	r0, 18432
 500 002a 0421     		movs	r1, #4
 501 002c 0022     		movs	r2, #0
 502 002e FFF7FEFF 		bl	_pal_lld_setgroupmode
 503              	.LVL41:
 504              		.loc 1 73 0
 505 0032 4FF40060 		mov	r0, #2048
 506 0036 C4F60000 		movt	r0, 18432
 507 003a 4FF40041 		mov	r1, #32768
 508 003e 0122     		movs	r2, #1
 509 0040 FFF7FEFF 		bl	_pal_lld_setgroupmode
 510              	.LVL42:
 511              		.loc 1 81 0
ARM GAS  C:\Users\Gaetano\AppData\Local\Temp\ccBLkhae.s 			page 10


 512 0044 4FF44066 		mov	r6, #3072
 513              		.loc 1 74 0
 514 0048 1C48     		ldr	r0, .L55+12
 515 004a 1D49     		ldr	r1, .L55+16
 516 004c 1D4D     		ldr	r5, .L55+20
 517              		.loc 1 87 0
 518 004e 4FF40067 		mov	r7, #2048
 519              		.loc 1 74 0
 520 0052 FFF7FEFF 		bl	pwmStart
 521              	.LVL43:
 522              		.loc 1 80 0
 523 0056 A146     		mov	r9, r4
 524              		.loc 1 81 0
 525 0058 C4F60006 		movt	r6, 18432
 526              		.loc 1 87 0
 527 005c C4F60007 		movt	r7, 18432
 528 0060 4FF40048 		mov	r8, #32768
 529 0064 05E0     		b	.L47
 530              	.LVL44:
 531              	.L42:
 532              		.loc 1 84 0
 533 0066 D0B9     		cbnz	r0, .L54
 534              		.loc 1 85 0
 535 0068 2A68     		ldr	r2, [r5, #0]
 536 006a 92B1     		cbz	r2, .L43
 537              	.LVL45:
 538              	.L46:
 539              		.loc 1 94 0
 540 006c 3C20     		movs	r0, #60
 541 006e FFF7FEFF 		bl	chThdSleep
 542              	.LVL46:
 543              	.L47:
 544              		.loc 1 80 0
 545 0072 0321     		movs	r1, #3
 546 0074 1148     		ldr	r0, .L55+12
 547 0076 2288     		ldrh	r2, [r4, #0]
 548 0078 FFF7FEFF 		bl	pwmEnableChannel
 549              	.LVL47:
 550              		.loc 1 83 0
 551 007c 2368     		ldr	r3, [r4, #0]
 552              		.loc 1 81 0
 553 007e 3169     		ldr	r1, [r6, #16]
 554              		.loc 1 83 0
 555 0080 B3F5E16F 		cmp	r3, #1800
 556              		.loc 1 81 0
 557 0084 C1F38000 		ubfx	r0, r1, #2, #1
 558              	.LVL48:
 559              		.loc 1 83 0
 560 0088 EDD1     		bne	.L42
 561              		.loc 1 83 0 is_stmt 0 discriminator 1
 562 008a 0022     		movs	r2, #0
 563 008c 2A60     		str	r2, [r5, #0]
 564              		.loc 1 85 0 is_stmt 1 discriminator 1
 565 008e 0028     		cmp	r0, #0
 566 0090 ECD1     		bne	.L46
 567              	.L43:
 568              		.loc 1 86 0
ARM GAS  C:\Users\Gaetano\AppData\Local\Temp\ccBLkhae.s 			page 11


 569 0092 A3F59670 		sub	r0, r3, #300
 570              	.LVL49:
 571 0096 2060     		str	r0, [r4, #0]
 572              		.loc 1 87 0
 573 0098 C7F81880 		str	r8, [r7, #24]
 574 009c E6E7     		b	.L46
 575              	.LVL50:
 576              	.L54:
 577              		.loc 1 90 0 discriminator 1
 578 009e 03F59671 		add	r1, r3, #300
 579              		.loc 1 91 0 discriminator 1
 580 00a2 4FF00043 		mov	r3, #-2147483648
 581              		.loc 1 84 0 discriminator 1
 582 00a6 2860     		str	r0, [r5, #0]
 583              		.loc 1 90 0 discriminator 1
 584 00a8 C9F80010 		str	r1, [r9, #0]
 585              		.loc 1 91 0 discriminator 1
 586 00ac BB61     		str	r3, [r7, #24]
 587 00ae DDE7     		b	.L46
 588              	.L56:
 589              		.align	2
 590              	.L55:
 591 00b0 00000000 		.word	rlist
 592 00b4 18000000 		.word	.LC3
 593 00b8 00000000 		.word	.LANCHOR7
 594 00bc 00000000 		.word	PWMD4
 595 00c0 00000000 		.word	.LANCHOR0
 596 00c4 00000000 		.word	.LANCHOR8
 597              		.cfi_endproc
 598              	.LFE119:
 599              		.size	Thread2, .-Thread2
 600 00c8 AFF30080 		.section	.text.Thread1,"ax",%progbits
 600      AFF30080 
 601              		.align	2
 602              		.p2align 4,,15
 603              		.thumb
 604              		.thumb_func
 605              		.type	Thread1, %function
 606              	Thread1:
 607              	.LFB118:
 608              		.loc 1 29 0
 609              		.cfi_startproc
 610              		@ args = 0, pretend = 0, frame = 0
 611              		@ frame_needed = 0, uses_anonymous_args = 0
 612              	.LVL51:
 613 0000 2DE9F843 		push	{r3, r4, r5, r6, r7, r8, r9, lr}
 614              	.LCFI4:
 615              		.cfi_def_cfa_offset 32
 616              		.cfi_offset 3, -32
 617              		.cfi_offset 4, -28
 618              		.cfi_offset 5, -24
 619              		.cfi_offset 6, -20
 620              		.cfi_offset 7, -16
 621              		.cfi_offset 8, -12
 622              		.cfi_offset 9, -8
 623              		.cfi_offset 14, -4
 624              		.loc 1 31 0
ARM GAS  C:\Users\Gaetano\AppData\Local\Temp\ccBLkhae.s 			page 12


 625 0004 284B     		ldr	r3, .L72
 626 0006 294A     		ldr	r2, .L72+4
 627 0008 9869     		ldr	r0, [r3, #24]
 628              	.LVL52:
 629 000a 294C     		ldr	r4, .L72+8
 630 000c 8261     		str	r2, [r0, #24]
 631              		.loc 1 34 0
 632 000e 4FF48060 		mov	r0, #1024
 633 0012 C4F60000 		movt	r0, 18432
 634 0016 4FF48071 		mov	r1, #256
 635 001a 4FF48172 		mov	r2, #258
 636 001e FFF7FEFF 		bl	_pal_lld_setgroupmode
 637              	.LVL53:
 638              		.loc 1 35 0
 639 0022 4FF44060 		mov	r0, #3072
 640 0026 C4F60000 		movt	r0, 18432
 641 002a 0221     		movs	r1, #2
 642 002c 0022     		movs	r2, #0
 643 002e FFF7FEFF 		bl	_pal_lld_setgroupmode
 644              	.LVL54:
 645              		.loc 1 36 0
 646 0032 4FF40060 		mov	r0, #2048
 647 0036 C4F60000 		movt	r0, 18432
 648 003a 4FF40041 		mov	r1, #32768
 649 003e 0122     		movs	r2, #1
 650 0040 FFF7FEFF 		bl	_pal_lld_setgroupmode
 651              	.LVL55:
 652              		.loc 1 43 0
 653 0044 4FF44065 		mov	r5, #3072
 654              		.loc 1 37 0
 655 0048 1A48     		ldr	r0, .L72+12
 656 004a 1B49     		ldr	r1, .L72+16
 657 004c 1B4E     		ldr	r6, .L72+20
 658              		.loc 1 49 0
 659 004e 4FF40068 		mov	r8, #2048
 660              		.loc 1 37 0
 661 0052 FFF7FEFF 		bl	pwmStart
 662              	.LVL56:
 663              		.loc 1 43 0
 664 0056 C4F60005 		movt	r5, 18432
 665              		.loc 1 49 0
 666 005a C4F60008 		movt	r8, 18432
 667 005e 4FF40049 		mov	r9, #32768
 668              		.loc 1 46 0
 669 0062 0127     		movs	r7, #1
 670 0064 03E0     		b	.L63
 671              	.LVL57:
 672              	.L71:
 673              		.loc 1 46 0 is_stmt 0 discriminator 1
 674 0066 3760     		str	r7, [r6, #0]
 675              	.L62:
 676              		.loc 1 56 0 is_stmt 1
 677 0068 6420     		movs	r0, #100
 678              	.LVL58:
 679 006a FFF7FEFF 		bl	chThdSleep
 680              	.LVL59:
 681              	.L63:
ARM GAS  C:\Users\Gaetano\AppData\Local\Temp\ccBLkhae.s 			page 13


 682              		.loc 1 42 0
 683 006e 0221     		movs	r1, #2
 684 0070 1048     		ldr	r0, .L72+12
 685 0072 2288     		ldrh	r2, [r4, #0]
 686 0074 FFF7FEFF 		bl	pwmEnableChannel
 687              	.LVL60:
 688              		.loc 1 45 0
 689 0078 2368     		ldr	r3, [r4, #0]
 690              		.loc 1 43 0
 691 007a 2969     		ldr	r1, [r5, #16]
 692              		.loc 1 45 0
 693 007c B3F5E16F 		cmp	r3, #1800
 694              		.loc 1 43 0
 695 0080 C1F34000 		ubfx	r0, r1, #1, #1
 696              	.LVL61:
 697              		.loc 1 45 0
 698 0084 0AD0     		beq	.L70
 699              		.loc 1 46 0
 700 0086 0028     		cmp	r0, #0
 701 0088 EDD0     		beq	.L71
 702              		.loc 1 47 0
 703 008a 3268     		ldr	r2, [r6, #0]
 704 008c 002A     		cmp	r2, #0
 705 008e EBD1     		bne	.L62
 706              	.L59:
 707              		.loc 1 48 0
 708 0090 03F52F73 		add	r3, r3, #700
 709 0094 2360     		str	r3, [r4, #0]
 710              		.loc 1 49 0
 711 0096 C8F81890 		str	r9, [r8, #24]
 712 009a E5E7     		b	.L62
 713              	.L70:
 714              		.loc 1 45 0 discriminator 1
 715 009c 0021     		movs	r1, #0
 716 009e 3160     		str	r1, [r6, #0]
 717              		.loc 1 47 0 discriminator 1
 718 00a0 0028     		cmp	r0, #0
 719 00a2 E1D0     		beq	.L62
 720 00a4 F4E7     		b	.L59
 721              	.L73:
 722 00a6 00BF     		.align	2
 723              	.L72:
 724 00a8 00000000 		.word	rlist
 725 00ac 20000000 		.word	.LC4
 726 00b0 00000000 		.word	.LANCHOR9
 727 00b4 00000000 		.word	PWMD4
 728 00b8 00000000 		.word	.LANCHOR0
 729 00bc 00000000 		.word	.LANCHOR10
 730              		.cfi_endproc
 731              	.LFE118:
 732              		.size	Thread1, .-Thread1
 733              		.section	.text.startup.main,"ax",%progbits
 734              		.align	2
 735              		.p2align 4,,15
 736              		.global	main
 737              		.thumb
 738              		.thumb_func
ARM GAS  C:\Users\Gaetano\AppData\Local\Temp\ccBLkhae.s 			page 14


 739              		.type	main, %function
 740              	main:
 741              	.LFB123:
 742              		.loc 1 216 0
 743              		.cfi_startproc
 744              		@ args = 0, pretend = 0, frame = 0
 745              		@ frame_needed = 0, uses_anonymous_args = 0
 746 0000 30B5     		push	{r4, r5, lr}
 747              	.LCFI5:
 748              		.cfi_def_cfa_offset 12
 749              		.cfi_offset 4, -12
 750              		.cfi_offset 5, -8
 751              		.cfi_offset 14, -4
 752              		.loc 1 220 0
 753 0002 4FF40065 		mov	r5, #2048
 754              		.loc 1 216 0
 755 0006 83B0     		sub	sp, sp, #12
 756              	.LCFI6:
 757              		.cfi_def_cfa_offset 24
 758              		.loc 1 220 0
 759 0008 C4F60005 		movt	r5, 18432
 760              		.loc 1 218 0
 761 000c FFF7FEFF 		bl	halInit
 762              	.LVL62:
 763              		.loc 1 219 0
 764 0010 FFF7FEFF 		bl	chSysInit
 765              	.LVL63:
 766              		.loc 1 220 0
 767 0014 2846     		mov	r0, r5
 768 0016 0122     		movs	r2, #1
 769 0018 4FF40051 		mov	r1, #8192
 770 001c FFF7FEFF 		bl	_pal_lld_setgroupmode
 771              	.LVL64:
 772              		.loc 1 221 0
 773 0020 4FF40053 		mov	r3, #8192
 774              		.loc 1 223 0
 775 0024 0024     		movs	r4, #0
 776              		.loc 1 221 0
 777 0026 AB61     		str	r3, [r5, #24]
 778              		.loc 1 223 0
 779 0028 40F20000 		movw	r0, #:lower16:.LANCHOR11
 780 002c 40F20003 		movw	r3, #:lower16:Thread1
 781 0030 4022     		movs	r2, #64
 782 0032 4FF4A871 		mov	r1, #336
 783 0036 C0F20003 		movt	r3, #:upper16:Thread1
 784 003a 0094     		str	r4, [sp, #0]
 785 003c C0F20000 		movt	r0, #:upper16:.LANCHOR11
 786 0040 FFF7FEFF 		bl	chThdCreateStatic
 787              	.LVL65:
 788              		.loc 1 224 0
 789 0044 40F20003 		movw	r3, #:lower16:Thread2
 790 0048 40F20000 		movw	r0, #:lower16:.LANCHOR12
 791 004c 4022     		movs	r2, #64
 792 004e 4FF4A871 		mov	r1, #336
 793 0052 C0F20003 		movt	r3, #:upper16:Thread2
 794 0056 0094     		str	r4, [sp, #0]
 795 0058 C0F20000 		movt	r0, #:upper16:.LANCHOR12
ARM GAS  C:\Users\Gaetano\AppData\Local\Temp\ccBLkhae.s 			page 15


 796 005c FFF7FEFF 		bl	chThdCreateStatic
 797              	.LVL66:
 798              		.loc 1 225 0
 799 0060 40F20003 		movw	r3, #:lower16:Thread3
 800 0064 40F20000 		movw	r0, #:lower16:.LANCHOR13
 801 0068 4022     		movs	r2, #64
 802 006a 4FF4A871 		mov	r1, #336
 803 006e C0F20003 		movt	r3, #:upper16:Thread3
 804 0072 0094     		str	r4, [sp, #0]
 805 0074 C0F20000 		movt	r0, #:upper16:.LANCHOR13
 806 0078 FFF7FEFF 		bl	chThdCreateStatic
 807              	.LVL67:
 808              		.loc 1 226 0
 809 007c 40F20003 		movw	r3, #:lower16:Thread4
 810 0080 40F20000 		movw	r0, #:lower16:.LANCHOR14
 811 0084 4022     		movs	r2, #64
 812 0086 4FF4A871 		mov	r1, #336
 813 008a C0F20003 		movt	r3, #:upper16:Thread4
 814 008e 0094     		str	r4, [sp, #0]
 815 0090 C0F20000 		movt	r0, #:upper16:.LANCHOR14
 816 0094 FFF7FEFF 		bl	chThdCreateStatic
 817              	.LVL68:
 818              		.loc 1 227 0
 819 0098 40F20000 		movw	r0, #:lower16:.LANCHOR15
 820 009c 40F20003 		movw	r3, #:lower16:Thread5
 821 00a0 0094     		str	r4, [sp, #0]
 822 00a2 4FF4A871 		mov	r1, #336
 823 00a6 4022     		movs	r2, #64
 824 00a8 C0F20003 		movt	r3, #:upper16:Thread5
 825 00ac C0F20000 		movt	r0, #:upper16:.LANCHOR15
 826 00b0 FFF7FEFF 		bl	chThdCreateStatic
 827              	.LVL69:
 828              		.loc 1 230 0
 829 00b4 2046     		mov	r0, r4
 830 00b6 03B0     		add	sp, sp, #12
 831 00b8 30BD     		pop	{r4, r5, pc}
 832              		.cfi_endproc
 833              	.LFE123:
 834              		.size	main, .-main
 835 00ba 00BFAFF3 		.section	.data.width.6295,"aw",%progbits
 835      0080
 836              		.align	2
 837              		.set	.LANCHOR9,. + 0
 838              		.type	width.6295, %object
 839              		.size	width.6295, 4
 840              	width.6295:
 841 0000 08070000 		.word	1800
 842              		.section	.data.width.6343,"aw",%progbits
 843              		.align	2
 844              		.set	.LANCHOR1,. + 0
 845              		.type	width.6343, %object
 846              		.size	width.6343, 4
 847              	width.6343:
 848 0000 D0070000 		.word	2000
 849              		.section	.bss.waThread1,"aw",%nobits
 850              		.align	3
 851              		.set	.LANCHOR11,. + 0
ARM GAS  C:\Users\Gaetano\AppData\Local\Temp\ccBLkhae.s 			page 16


 852              		.type	waThread1, %object
 853              		.size	waThread1, 336
 854              	waThread1:
 855 0000 00000000 		.space	336
 855      00000000 
 855      00000000 
 855      00000000 
 855      00000000 
 856              		.section	.bss.dir.6329,"aw",%nobits
 857              		.align	2
 858              		.set	.LANCHOR4,. + 0
 859              		.type	dir.6329, %object
 860              		.size	dir.6329, 4
 861              	dir.6329:
 862 0000 00000000 		.space	4
 863              		.section	.bss.waThread3,"aw",%nobits
 864              		.align	3
 865              		.set	.LANCHOR13,. + 0
 866              		.type	waThread3, %object
 867              		.size	waThread3, 336
 868              	waThread3:
 869 0000 00000000 		.space	336
 869      00000000 
 869      00000000 
 869      00000000 
 869      00000000 
 870              		.section	.bss.dir.6341,"aw",%nobits
 871              		.align	2
 872              		.set	.LANCHOR2,. + 0
 873              		.type	dir.6341, %object
 874              		.size	dir.6341, 4
 875              	dir.6341:
 876 0000 00000000 		.space	4
 877              		.section	.bss.waThread5,"aw",%nobits
 878              		.align	3
 879              		.set	.LANCHOR15,. + 0
 880              		.type	waThread5, %object
 881              		.size	waThread5, 336
 882              	waThread5:
 883 0000 00000000 		.space	336
 883      00000000 
 883      00000000 
 883      00000000 
 883      00000000 
 884              		.section	.bss.dir.6293,"aw",%nobits
 885              		.align	2
 886              		.set	.LANCHOR10,. + 0
 887              		.type	dir.6293, %object
 888              		.size	dir.6293, 4
 889              	dir.6293:
 890 0000 00000000 		.space	4
 891              		.section	.data.pwmcfg,"aw",%progbits
 892              		.align	2
 893              		.set	.LANCHOR0,. + 0
 894              		.type	pwmcfg, %object
 895              		.size	pwmcfg, 52
 896              	pwmcfg:
ARM GAS  C:\Users\Gaetano\AppData\Local\Temp\ccBLkhae.s 			page 17


 897 0000 40420F00 		.word	1000000
 898 0004 204E     		.short	20000
 899 0006 0000     		.space	2
 900 0008 00000000 		.word	0
 901 000c 01000000 		.word	1
 902 0010 00000000 		.word	0
 903 0014 01000000 		.word	1
 904 0018 00000000 		.word	0
 905 001c 01000000 		.word	1
 906 0020 00000000 		.word	0
 907 0024 01000000 		.word	1
 908 0028 00000000 		.word	0
 909 002c 00000000 		.word	0
 910 0030 00000000 		.space	4
 911              		.section	.bss.waThread2,"aw",%nobits
 912              		.align	3
 913              		.set	.LANCHOR12,. + 0
 914              		.type	waThread2, %object
 915              		.size	waThread2, 336
 916              	waThread2:
 917 0000 00000000 		.space	336
 917      00000000 
 917      00000000 
 917      00000000 
 917      00000000 
 918              		.section	.data.width.6307,"aw",%progbits
 919              		.align	2
 920              		.set	.LANCHOR7,. + 0
 921              		.type	width.6307, %object
 922              		.size	width.6307, 4
 923              	width.6307:
 924 0000 08070000 		.word	1800
 925              		.section	.rodata.str1.4,"aMS",%progbits,1
 926              		.align	2
 927              	.LC0:
 928 0000 46696E67 		.ascii	"Finger5\000"
 928      65723500 
 929              	.LC1:
 930 0008 46696E67 		.ascii	"Finger4\000"
 930      65723400 
 931              	.LC2:
 932 0010 46696E67 		.ascii	"Finger3\000"
 932      65723300 
 933              	.LC3:
 934 0018 46696E67 		.ascii	"Finger2\000"
 934      65723200 
 935              	.LC4:
 936 0020 46696E67 		.ascii	"Finger1\000"
 936      65723100 
 937              		.section	.bss.waThread4,"aw",%nobits
 938              		.align	3
 939              		.set	.LANCHOR14,. + 0
 940              		.type	waThread4, %object
 941              		.size	waThread4, 336
 942              	waThread4:
 943 0000 00000000 		.space	336
 943      00000000 
ARM GAS  C:\Users\Gaetano\AppData\Local\Temp\ccBLkhae.s 			page 18


 943      00000000 
 943      00000000 
 943      00000000 
 944              		.section	.bss.dir.6305,"aw",%nobits
 945              		.align	2
 946              		.set	.LANCHOR8,. + 0
 947              		.type	dir.6305, %object
 948              		.size	dir.6305, 4
 949              	dir.6305:
 950 0000 00000000 		.space	4
 951              		.section	.data.width.6319,"aw",%progbits
 952              		.align	2
 953              		.set	.LANCHOR5,. + 0
 954              		.type	width.6319, %object
 955              		.size	width.6319, 4
 956              	width.6319:
 957 0000 BC020000 		.word	700
 958              		.section	.data.width.6331,"aw",%progbits
 959              		.align	2
 960              		.set	.LANCHOR3,. + 0
 961              		.type	width.6331, %object
 962              		.size	width.6331, 4
 963              	width.6331:
 964 0000 A4060000 		.word	1700
 965              		.section	.bss.dir.6317,"aw",%nobits
 966              		.align	2
 967              		.set	.LANCHOR6,. + 0
 968              		.type	dir.6317, %object
 969              		.size	dir.6317, 4
 970              	dir.6317:
 971 0000 00000000 		.space	4
 972              		.text
 973              	.Letext0:
 974              		.file 2 "c:\\chibistudio\\tools\\gnu tools arm embedded\\4.7 2014q2\\bin\\../lib/gcc/arm-none-eabi
 975              		.file 3 "c:\\chibistudio\\tools\\gnu tools arm embedded\\4.7 2014q2\\bin\\../lib/gcc/arm-none-eabi
 976              		.file 4 "../../os/ports/GCC/ARMCMx/chtypes.h"
 977              		.file 5 "../../os/kernel/include/chlists.h"
 978              		.file 6 "../../os/kernel/include/chthreads.h"
 979              		.file 7 "../../os/ports/GCC/ARMCMx/chcore_v7m.h"
 980              		.file 8 "../../os/kernel/include/chschd.h"
 981              		.file 9 "../../os/kernel/include/chmtx.h"
 982              		.file 10 "../../os/hal/platforms/STM32/GPIOv2/pal_lld.h"
 983              		.file 11 "../../os/hal/include/pwm.h"
 984              		.file 12 "../../os/hal/platforms/STM32/TIMv1/pwm_lld.h"
 985              		.file 13 "../../os/hal/platforms/STM32/TIMv1/stm32_tim.h"
 986              		.file 14 "../../os/ports/common/ARMCMx/CMSIS/include/core_cm4.h"
 987              		.file 15 "../../os/hal/include/hal.h"
 988              		.file 16 "../../os/kernel/include/chsys.h"