ARM GAS  C:\Users\Gaetano\AppData\Local\Temp\cczEnSBN.s 			page 1


   1              		.syntax unified
   2              		.cpu cortex-m4
   3              		.fpu softvfp
   4              		.eabi_attribute 20, 1
   5              		.eabi_attribute 21, 1
   6              		.eabi_attribute 23, 3
   7              		.eabi_attribute 24, 1
   8              		.eabi_attribute 25, 1
   9              		.eabi_attribute 26, 1
  10              		.eabi_attribute 30, 2
  11              		.eabi_attribute 34, 1
  12              		.eabi_attribute 18, 4
  13              		.thumb
  14              		.file	"serial_lld.c"
  15              		.text
  16              	.Ltext0:
  17              		.cfi_sections	.debug_frame
  18              		.section	.text.notify1,"ax",%progbits
  19              		.align	2
  20              		.p2align 4,,15
  21              		.thumb
  22              		.thumb_func
  23              		.type	notify1, %function
  24              	notify1:
  25              	.LFB122:
  26              		.file 1 "../../os/hal/platforms/STM32/USARTv2/serial_lld.c"
  27              		.loc 1 198 0
  28              		.cfi_startproc
  29              		@ args = 0, pretend = 0, frame = 0
  30              		@ frame_needed = 0, uses_anonymous_args = 0
  31              		@ link register save eliminated.
  32              	.LVL0:
  33              		.loc 1 201 0
  34 0000 4FF46053 		mov	r3, #14336
  35 0004 C4F20103 		movt	r3, 16385
  36 0008 1A68     		ldr	r2, [r3, #0]
  37 000a 42F08000 		orr	r0, r2, #128
  38              	.LVL1:
  39 000e 1860     		str	r0, [r3, #0]
  40 0010 7047     		bx	lr
  41              		.cfi_endproc
  42              	.LFE122:
  43              		.size	notify1, .-notify1
  44 0012 00BFAFF3 		.section	.text.VectorD4,"ax",%progbits
  44      0080AFF3 
  44      0080AFF3 
  44      0080
  45              		.align	2
  46              		.p2align 4,,15
  47              		.global	VectorD4
  48              		.thumb
  49              		.thumb_func
  50              		.type	VectorD4, %function
  51              	VectorD4:
  52              	.LFB123:
  53              		.loc 1 258 0
  54              		.cfi_startproc
ARM GAS  C:\Users\Gaetano\AppData\Local\Temp\cczEnSBN.s 			page 2


  55              		@ args = 0, pretend = 0, frame = 0
  56              		@ frame_needed = 0, uses_anonymous_args = 0
  57              	.LVL2:
  58              	.LBB32:
  59              	.LBB33:
  60              		.loc 1 148 0
  61 0000 364B     		ldr	r3, .L48
  62              	.LBE33:
  63              	.LBE32:
  64              		.loc 1 258 0
  65 0002 70B5     		push	{r4, r5, r6, lr}
  66              	.LCFI0:
  67              		.cfi_def_cfa_offset 16
  68              		.cfi_offset 4, -16
  69              		.cfi_offset 5, -12
  70              		.cfi_offset 6, -8
  71              		.cfi_offset 14, -4
  72              	.LBB49:
  73              	.LBB47:
  74              		.loc 1 148 0
  75 0004 5D6F     		ldr	r5, [r3, #116]
  76              	.LVL3:
  77              		.loc 1 149 0
  78 0006 2E68     		ldr	r6, [r5, #0]
  79              	.LVL4:
  80              		.loc 1 153 0
  81 0008 EC69     		ldr	r4, [r5, #28]
  82              	.LVL5:
  83              		.loc 1 157 0
  84 000a 2207     		lsls	r2, r4, #28
  85              		.loc 1 154 0
  86 000c 2C62     		str	r4, [r5, #32]
  87              		.loc 1 157 0
  88 000e 32D1     		bne	.L43
  89              	.LVL6:
  90              	.L3:
  91              		.loc 1 161 0
  92 0010 E305     		lsls	r3, r4, #23
  93              	.LVL7:
  94 0012 24D4     		bmi	.L44
  95              	.LVL8:
  96              	.L8:
  97              		.loc 1 168 0
  98 0014 A006     		lsls	r0, r4, #26
  99 0016 16D4     		bmi	.L45
 100              	.LVL9:
 101              	.L9:
 102              		.loc 1 175 0
 103 0018 3106     		lsls	r1, r6, #24
 104 001a 01D5     		bpl	.L10
 105 001c 2206     		lsls	r2, r4, #24
 106 001e 45D4     		bmi	.L46
 107              	.LVL10:
 108              	.L10:
 109              		.loc 1 189 0
 110 0020 6306     		lsls	r3, r4, #25
 111              	.LVL11:
ARM GAS  C:\Users\Gaetano\AppData\Local\Temp\cczEnSBN.s 			page 3


 112 0022 0CD5     		bpl	.L13
 113              	.LBB34:
 114              		.loc 1 190 0
 115 0024 2023     		movs	r3, #32
 116              	.LVL12:
 117              	@ 190 "../../os/hal/platforms/STM32/USARTv2/serial_lld.c" 1
 118 0026 83F31188 		msr     BASEPRI, r3
 119              	@ 0 "" 2
 120              	.LVL13:
 121              		.thumb
 122              	.LBE34:
 123              		.loc 1 191 0
 124 002a 2D48     		ldr	r0, .L48+4
 125 002c 1021     		movs	r1, #16
 126 002e FFF7FEFF 		bl	chEvtBroadcastFlagsI
 127              	.LVL14:
 128              	.LBB35:
 129              		.loc 1 192 0
 130 0032 0023     		movs	r3, #0
 131              	.LVL15:
 132              	@ 192 "../../os/hal/platforms/STM32/USARTv2/serial_lld.c" 1
 133 0034 83F31188 		msr     BASEPRI, r3
 134              	@ 0 "" 2
 135              	.LVL16:
 136              		.thumb
 137              	.LBE35:
 138              		.loc 1 193 0
 139 0038 26F04006 		bic	r6, r6, #64
 140              	.LVL17:
 141 003c 2E60     		str	r6, [r5, #0]
 142              	.L13:
 143              	.LBE47:
 144              	.LBE49:
 145              		.loc 1 265 0
 146 003e BDE87040 		pop	{r4, r5, r6, lr}
 147              		.loc 1 264 0
 148 0042 FFF7FEBF 		b	_port_irq_epilogue
 149              	.LVL18:
 150              	.L45:
 151              	.LBB50:
 152              	.LBB48:
 153              	.LBB36:
 154              		.loc 1 169 0
 155 0046 2023     		movs	r3, #32
 156              	.LVL19:
 157              	@ 169 "../../os/hal/platforms/STM32/USARTv2/serial_lld.c" 1
 158 0048 83F31188 		msr     BASEPRI, r3
 159              	@ 0 "" 2
 160              	.LVL20:
 161              		.thumb
 162              	.LBE36:
 163              		.loc 1 170 0
 164 004c A98C     		ldrh	r1, [r5, #36]
 165 004e 2348     		ldr	r0, .L48
 166 0050 C9B2     		uxtb	r1, r1
 167 0052 FFF7FEFF 		bl	sdIncomingDataI
 168              	.LVL21:
ARM GAS  C:\Users\Gaetano\AppData\Local\Temp\cczEnSBN.s 			page 4


 169              	.LBB37:
 170              		.loc 1 171 0
 171 0056 0023     		movs	r3, #0
 172              	@ 171 "../../os/hal/platforms/STM32/USARTv2/serial_lld.c" 1
 173 0058 83F31188 		msr     BASEPRI, r3
 174              	@ 0 "" 2
 175              	.LVL22:
 176              		.thumb
 177 005c DCE7     		b	.L9
 178              	.LVL23:
 179              	.L44:
 180              	.LBE37:
 181              	.LBB38:
 182              		.loc 1 162 0
 183 005e 2023     		movs	r3, #32
 184              	.LVL24:
 185              	@ 162 "../../os/hal/platforms/STM32/USARTv2/serial_lld.c" 1
 186 0060 83F31188 		msr     BASEPRI, r3
 187              	@ 0 "" 2
 188              	.LVL25:
 189              		.thumb
 190              	.LBE38:
 191              		.loc 1 163 0
 192 0064 1E48     		ldr	r0, .L48+4
 193 0066 4FF40071 		mov	r1, #512
 194 006a FFF7FEFF 		bl	chEvtBroadcastFlagsI
 195              	.LVL26:
 196              	.LBB39:
 197              		.loc 1 164 0
 198 006e 0023     		movs	r3, #0
 199              	@ 164 "../../os/hal/platforms/STM32/USARTv2/serial_lld.c" 1
 200 0070 83F31188 		msr     BASEPRI, r3
 201              	@ 0 "" 2
 202              	.LVL27:
 203              		.thumb
 204 0074 CEE7     		b	.L8
 205              	.LVL28:
 206              	.L43:
 207              	.LBE39:
 208              	.LBB40:
 209              	.LBB41:
 210              		.loc 1 130 0
 211 0076 14F0080F 		tst	r4, #8
 212 007a 0CBF     		ite	eq
 213 007c 0021     		moveq	r1, #0
 214 007e 8021     		movne	r1, #128
 215              	.LVL29:
 216              		.loc 1 131 0
 217 0080 E307     		lsls	r3, r4, #31
 218              		.loc 1 132 0
 219 0082 48BF     		it	mi
 220 0084 41F02001 		orrmi	r1, r1, #32
 221              	.LVL30:
 222              		.loc 1 133 0
 223 0088 A007     		lsls	r0, r4, #30
 224              		.loc 1 134 0
 225 008a 48BF     		it	mi
ARM GAS  C:\Users\Gaetano\AppData\Local\Temp\cczEnSBN.s 			page 5


 226 008c 41F04001 		orrmi	r1, r1, #64
 227              	.LVL31:
 228              		.loc 1 135 0
 229 0090 6207     		lsls	r2, r4, #29
 230              		.loc 1 136 0
 231 0092 48BF     		it	mi
 232 0094 41F48071 		orrmi	r1, r1, #256
 233              	.LVL32:
 234              	.LBB42:
 235              		.loc 1 137 0
 236 0098 2023     		movs	r3, #32
 237              	.LVL33:
 238              	@ 137 "../../os/hal/platforms/STM32/USARTv2/serial_lld.c" 1
 239 009a 83F31188 		msr     BASEPRI, r3
 240              	@ 0 "" 2
 241              	.LVL34:
 242              		.thumb
 243              	.LBE42:
 244              		.loc 1 138 0
 245 009e 1048     		ldr	r0, .L48+4
 246 00a0 FFF7FEFF 		bl	chEvtBroadcastFlagsI
 247              	.LVL35:
 248              	.LBB43:
 249              		.loc 1 139 0
 250 00a4 0023     		movs	r3, #0
 251              	@ 139 "../../os/hal/platforms/STM32/USARTv2/serial_lld.c" 1
 252 00a6 83F31188 		msr     BASEPRI, r3
 253              	@ 0 "" 2
 254              	.LVL36:
 255              		.thumb
 256 00aa B1E7     		b	.L3
 257              	.LVL37:
 258              	.L46:
 259              	.LBE43:
 260              	.LBE41:
 261              	.LBE40:
 262              	.LBB44:
 263              	.LBB45:
 264              		.loc 1 177 0
 265 00ac 2023     		movs	r3, #32
 266              	.LVL38:
 267              	@ 177 "../../os/hal/platforms/STM32/USARTv2/serial_lld.c" 1
 268 00ae 83F31188 		msr     BASEPRI, r3
 269              	@ 0 "" 2
 270              	.LVL39:
 271              		.thumb
 272              	.LBE45:
 273              		.loc 1 178 0
 274 00b2 0C48     		ldr	r0, .L48+8
 275 00b4 FFF7FEFF 		bl	chOQGetI
 276              	.LVL40:
 277              		.loc 1 179 0
 278 00b8 0028     		cmp	r0, #0
 279 00ba 05DB     		blt	.L47
 280              		.loc 1 184 0
 281 00bc 80B2     		uxth	r0, r0
 282              	.LVL41:
ARM GAS  C:\Users\Gaetano\AppData\Local\Temp\cczEnSBN.s 			page 6


 283 00be 2885     		strh	r0, [r5, #40]	@ movhi
 284              	.L12:
 285              	.LBB46:
 286              		.loc 1 185 0
 287 00c0 0023     		movs	r3, #0
 288              	@ 185 "../../os/hal/platforms/STM32/USARTv2/serial_lld.c" 1
 289 00c2 83F31188 		msr     BASEPRI, r3
 290              	@ 0 "" 2
 291              	.LVL42:
 292              		.thumb
 293 00c6 ABE7     		b	.L10
 294              	.LVL43:
 295              	.L47:
 296              	.LBE46:
 297              		.loc 1 180 0
 298 00c8 0548     		ldr	r0, .L48+4
 299              	.LVL44:
 300 00ca 0821     		movs	r1, #8
 301 00cc FFF7FEFF 		bl	chEvtBroadcastFlagsI
 302              	.LVL45:
 303              		.loc 1 181 0
 304 00d0 26F0C002 		bic	r2, r6, #192
 305 00d4 42F04003 		orr	r3, r2, #64
 306 00d8 2B60     		str	r3, [r5, #0]
 307 00da F1E7     		b	.L12
 308              	.L49:
 309              		.align	2
 310              	.L48:
 311 00dc 00000000 		.word	.LANCHOR0
 312 00e0 04000000 		.word	.LANCHOR0+4
 313 00e4 30000000 		.word	.LANCHOR0+48
 314              	.LBE44:
 315              	.LBE48:
 316              	.LBE50:
 317              		.cfi_endproc
 318              	.LFE123:
 319              		.size	VectorD4, .-VectorD4
 320 00e8 AFF30080 		.section	.text.sd_lld_init,"ax",%progbits
 320      AFF30080 
 321              		.align	2
 322              		.p2align 4,,15
 323              		.global	sd_lld_init
 324              		.thumb
 325              		.thumb_func
 326              		.type	sd_lld_init, %function
 327              	sd_lld_init:
 328              	.LFB124:
 329              		.loc 1 372 0
 330              		.cfi_startproc
 331              		@ args = 0, pretend = 0, frame = 0
 332              		@ frame_needed = 0, uses_anonymous_args = 0
 333 0000 10B5     		push	{r4, lr}
 334              	.LCFI1:
 335              		.cfi_def_cfa_offset 8
 336              		.cfi_offset 4, -8
 337              		.cfi_offset 14, -4
 338              		.loc 1 375 0
ARM GAS  C:\Users\Gaetano\AppData\Local\Temp\cczEnSBN.s 			page 7


 339 0002 40F20004 		movw	r4, #:lower16:.LANCHOR0
 340 0006 C0F20004 		movt	r4, #:upper16:.LANCHOR0
 341 000a 40F20002 		movw	r2, #:lower16:notify1
 342 000e C0F20002 		movt	r2, #:upper16:notify1
 343 0012 2046     		mov	r0, r4
 344 0014 0021     		movs	r1, #0
 345 0016 FFF7FEFF 		bl	sdObjectInit
 346              	.LVL46:
 347              		.loc 1 376 0
 348 001a 4FF46052 		mov	r2, #14336
 349              		.loc 1 377 0
 350 001e 4FF4A243 		mov	r3, #20736
 351              		.loc 1 376 0
 352 0022 C4F20102 		movt	r2, 16385
 353              		.loc 1 377 0
 354 0026 C0F22523 		movt	r3, 549
 355              		.loc 1 376 0
 356 002a 6267     		str	r2, [r4, #116]
 357              		.loc 1 377 0
 358 002c A367     		str	r3, [r4, #120]
 359 002e 10BD     		pop	{r4, pc}
 360              		.cfi_endproc
 361              	.LFE124:
 362              		.size	sd_lld_init, .-sd_lld_init
 363              		.section	.text.sd_lld_start,"ax",%progbits
 364              		.align	2
 365              		.p2align 4,,15
 366              		.global	sd_lld_start
 367              		.thumb
 368              		.thumb_func
 369              		.type	sd_lld_start, %function
 370              	sd_lld_start:
 371              	.LFB125:
 372              		.loc 1 421 0
 373              		.cfi_startproc
 374              		@ args = 0, pretend = 0, frame = 0
 375              		@ frame_needed = 0, uses_anonymous_args = 0
 376              	.LVL47:
 377 0000 F8B5     		push	{r3, r4, r5, r6, r7, lr}
 378              	.LCFI2:
 379              		.cfi_def_cfa_offset 24
 380              		.cfi_offset 3, -24
 381              		.cfi_offset 4, -20
 382              		.cfi_offset 5, -16
 383              		.cfi_offset 6, -12
 384              		.cfi_offset 7, -8
 385              		.cfi_offset 14, -4
 386              		.loc 1 426 0
 387 0002 037A     		ldrb	r3, [r0, #8]	@ zero_extendqisi2
 388              		.loc 1 424 0
 389 0004 174C     		ldr	r4, .L56
 390 0006 0029     		cmp	r1, #0
 391 0008 18BF     		it	ne
 392 000a 0C46     		movne	r4, r1
 393              		.loc 1 426 0
 394 000c 012B     		cmp	r3, #1
 395              		.loc 1 421 0
ARM GAS  C:\Users\Gaetano\AppData\Local\Temp\cczEnSBN.s 			page 8


 396 000e 0546     		mov	r5, r0
 397              		.loc 1 426 0
 398 0010 18D0     		beq	.L55
 399              	.LVL48:
 400              	.L53:
 401              	.LBB51:
 402              	.LBB52:
 403              		.loc 1 96 0
 404 0012 AF6F     		ldr	r7, [r5, #120]
 405 0014 2668     		ldr	r6, [r4, #0]
 406              		.loc 1 102 0
 407 0016 6268     		ldr	r2, [r4, #4]
 408              		.loc 1 99 0
 409 0018 A068     		ldr	r0, [r4, #8]
 410              		.loc 1 100 0
 411 001a E168     		ldr	r1, [r4, #12]
 412              		.loc 1 93 0
 413 001c 6B6F     		ldr	r3, [r5, #116]
 414              	.LVL49:
 415              		.loc 1 96 0
 416 001e B7FBF6F4 		udiv	r4, r7, r6
 417              		.loc 1 99 0
 418 0022 40F04000 		orr	r0, r0, #64
 419              		.loc 1 102 0
 420 0026 42F49672 		orr	r2, r2, #300
 421              		.loc 1 96 0
 422 002a A4B2     		uxth	r4, r4
 423 002c 9C81     		strh	r4, [r3, #12]	@ movhi
 424              		.loc 1 100 0
 425 002e 41F00101 		orr	r1, r1, #1
 426              		.loc 1 99 0
 427 0032 5860     		str	r0, [r3, #4]
 428              		.loc 1 102 0
 429 0034 42F00102 		orr	r2, r2, #1
 430              		.loc 1 104 0
 431 0038 4FF0FF30 		mov	r0, #-1
 432              		.loc 1 100 0
 433 003c 9960     		str	r1, [r3, #8]
 434              		.loc 1 101 0
 435 003e 1A60     		str	r2, [r3, #0]
 436              		.loc 1 104 0
 437 0040 1862     		str	r0, [r3, #32]
 438 0042 F8BD     		pop	{r3, r4, r5, r6, r7, pc}
 439              	.LVL50:
 440              	.L55:
 441              	.LBE52:
 442              	.LBE51:
 443              		.loc 1 428 0
 444 0044 0848     		ldr	r0, .L56+4
 445              	.LVL51:
 446 0046 8542     		cmp	r5, r0
 447 0048 E3D1     		bne	.L53
 448              		.loc 1 429 0
 449 004a 4FF48051 		mov	r1, #4096
 450              	.LVL52:
 451 004e C4F20201 		movt	r1, 16386
 452              		.loc 1 430 0
ARM GAS  C:\Users\Gaetano\AppData\Local\Temp\cczEnSBN.s 			page 9


 453 0052 2520     		movs	r0, #37
 454              		.loc 1 429 0
 455 0054 8A69     		ldr	r2, [r1, #24]
 456 0056 42F48046 		orr	r6, r2, #16384
 457 005a 8E61     		str	r6, [r1, #24]
 458              		.loc 1 430 0
 459 005c C021     		movs	r1, #192
 460 005e FFF7FEFF 		bl	nvicEnableVector
 461              	.LVL53:
 462 0062 D6E7     		b	.L53
 463              	.L57:
 464              		.align	2
 465              	.L56:
 466 0064 00000000 		.word	.LANCHOR1
 467 0068 00000000 		.word	.LANCHOR0
 468              		.cfi_endproc
 469              	.LFE125:
 470              		.size	sd_lld_start, .-sd_lld_start
 471 006c AFF30080 		.section	.text.sd_lld_stop,"ax",%progbits
 472              		.align	2
 473              		.p2align 4,,15
 474              		.global	sd_lld_stop
 475              		.thumb
 476              		.thumb_func
 477              		.type	sd_lld_stop, %function
 478              	sd_lld_stop:
 479              	.LFB126:
 480              		.loc 1 482 0
 481              		.cfi_startproc
 482              		@ args = 0, pretend = 0, frame = 0
 483              		@ frame_needed = 0, uses_anonymous_args = 0
 484              		@ link register save eliminated.
 485              	.LVL54:
 486              		.loc 1 484 0
 487 0000 037A     		ldrb	r3, [r0, #8]	@ zero_extendqisi2
 488 0002 022B     		cmp	r3, #2
 489 0004 00D0     		beq	.L62
 490              	.L58:
 491 0006 7047     		bx	lr
 492              	.L62:
 493              		.loc 1 487 0
 494 0008 094B     		ldr	r3, .L63
 495              		.loc 1 485 0
 496 000a 416F     		ldr	r1, [r0, #116]
 497              	.LVL55:
 498              	.LBB53:
 499              	.LBB54:
 500              		.loc 1 115 0
 501 000c 0022     		movs	r2, #0
 502              	.LBE54:
 503              	.LBE53:
 504              		.loc 1 487 0
 505 000e 9842     		cmp	r0, r3
 506              	.LBB56:
 507              	.LBB55:
 508              		.loc 1 115 0
 509 0010 0A60     		str	r2, [r1, #0]
ARM GAS  C:\Users\Gaetano\AppData\Local\Temp\cczEnSBN.s 			page 10


 510              		.loc 1 116 0
 511 0012 4A60     		str	r2, [r1, #4]
 512              		.loc 1 117 0
 513 0014 8A60     		str	r2, [r1, #8]
 514              	.LBE55:
 515              	.LBE56:
 516              		.loc 1 487 0
 517 0016 F6D1     		bne	.L58
 518              		.loc 1 488 0
 519 0018 4FF48051 		mov	r1, #4096
 520              	.LVL56:
 521 001c C4F20201 		movt	r1, 16386
 522              		.loc 1 489 0
 523 0020 2520     		movs	r0, #37
 524              	.LVL57:
 525              		.loc 1 488 0
 526 0022 8A69     		ldr	r2, [r1, #24]
 527 0024 22F48043 		bic	r3, r2, #16384
 528 0028 8B61     		str	r3, [r1, #24]
 529              		.loc 1 529 0
 530              		.loc 1 489 0
 531 002a FFF7FEBF 		b	nvicDisableVector
 532              	.LVL58:
 533              	.L64:
 534 002e 00BF     		.align	2
 535              	.L63:
 536 0030 00000000 		.word	.LANCHOR0
 537              		.cfi_endproc
 538              	.LFE126:
 539              		.size	sd_lld_stop, .-sd_lld_stop
 540              		.global	SD1
 541 0034 AFF30080 		.section	.rodata.default_config,"a",%progbits
 541      AFF30080 
 541      AFF30080 
 542              		.align	2
 543              		.set	.LANCHOR1,. + 0
 544              		.type	default_config, %object
 545              		.size	default_config, 16
 546              	default_config:
 547 0000 00960000 		.word	38400
 548 0004 00000000 		.word	0
 549 0008 00400000 		.word	16384
 550 000c 00000000 		.word	0
 551              		.section	.bss.SD1,"aw",%nobits
 552              		.align	2
 553              		.set	.LANCHOR0,. + 0
 554              		.type	SD1, %object
 555              		.size	SD1, 124
 556              	SD1:
 557 0000 00000000 		.space	124
 557      00000000 
 557      00000000 
 557      00000000 
 557      00000000 
 558              		.text
 559              	.Letext0:
 560              		.file 2 "c:\\chibistudio\\tools\\gnu tools arm embedded\\4.7 2014q2\\bin\\../lib/gcc/arm-none-eabi
ARM GAS  C:\Users\Gaetano\AppData\Local\Temp\cczEnSBN.s 			page 11


 561              		.file 3 "c:\\chibistudio\\tools\\gnu tools arm embedded\\4.7 2014q2\\bin\\../lib/gcc/arm-none-eabi
 562              		.file 4 "../../os/ports/GCC/ARMCMx/chtypes.h"
 563              		.file 5 "../../os/kernel/include/chlists.h"
 564              		.file 6 "../../os/kernel/include/chthreads.h"
 565              		.file 7 "../../os/ports/GCC/ARMCMx/chcore_v7m.h"
 566              		.file 8 "../../os/kernel/include/chmtx.h"
 567              		.file 9 "../../os/kernel/include/chevents.h"
 568              		.file 10 "../../os/kernel/include/chqueues.h"
 569              		.file 11 "../../os/hal/platforms/STM32F30x/stm32f30x.h"
 570              		.file 12 "../../os/hal/include/serial.h"
 571              		.file 13 "../../os/hal/platforms/STM32/USARTv2/serial_lld.h"
 572              		.file 14 "../../os/ports/common/ARMCMx/nvic.h"
 573              		.file 15 "../../os/ports/common/ARMCMx/CMSIS/include/core_cm4.h"