ARM GAS  C:\Users\Gaetano\AppData\Local\Temp\cc5Hlu00.s 			page 1


   1              		.syntax unified
   2              		.cpu cortex-m4
   3              		.fpu softvfp
   4              		.eabi_attribute 20, 1
   5              		.eabi_attribute 21, 1
   6              		.eabi_attribute 23, 3
   7              		.eabi_attribute 24, 1
   8              		.eabi_attribute 25, 1
   9              		.eabi_attribute 26, 1
  10              		.eabi_attribute 30, 2
  11              		.eabi_attribute 34, 1
  12              		.eabi_attribute 18, 4
  13              		.thumb
  14              		.file	"servo.c"
  15              		.text
  16              	.Ltext0:
  17              		.cfi_sections	.debug_frame
  18              		.section	.text.servoInit,"ax",%progbits
  19              		.align	2
  20              		.p2align 4,,15
  21              		.global	servoInit
  22              		.thumb
  23              		.thumb_func
  24              		.type	servoInit, %function
  25              	servoInit:
  26              	.LFB118:
  27              		.file 1 "servo.c"
  28              		.loc 1 17 0
  29              		.cfi_startproc
  30              		@ args = 0, pretend = 0, frame = 0
  31              		@ frame_needed = 0, uses_anonymous_args = 0
  32              	.LVL0:
  33 0000 38B5     		push	{r3, r4, r5, lr}
  34              	.LCFI0:
  35              		.cfi_def_cfa_offset 16
  36              		.cfi_offset 3, -16
  37              		.cfi_offset 4, -12
  38              		.cfi_offset 5, -8
  39              		.cfi_offset 14, -4
  40              		.loc 1 17 0
  41 0002 0546     		mov	r5, r0
  42              		.loc 1 19 0
  43 0004 007B     		ldrb	r0, [r0, #12]	@ zero_extendqisi2
  44              	.LVL1:
  45 0006 40F20004 		movw	r4, #:lower16:.LANCHOR0
  46 000a 411C     		adds	r1, r0, #1
  47 000c C0F20004 		movt	r4, #:upper16:.LANCHOR0
  48 0010 04EBC103 		add	r3, r4, r1, lsl #3
  49 0014 0022     		movs	r2, #0
  50 0016 0121     		movs	r1, #1
  51 0018 1971     		strb	r1, [r3, #4]
  52 001a 5A71     		strb	r2, [r3, #5]
  53 001c 9A71     		strb	r2, [r3, #6]
  54 001e DA71     		strb	r2, [r3, #7]
  55 0020 1A72     		strb	r2, [r3, #8]
  56 0022 5A72     		strb	r2, [r3, #9]
  57 0024 9A72     		strb	r2, [r3, #10]
ARM GAS  C:\Users\Gaetano\AppData\Local\Temp\cc5Hlu00.s 			page 2


  58 0026 DA72     		strb	r2, [r3, #11]
  59              		.loc 1 21 0
  60 0028 95E80900 		ldmia	r5, {r0, r3}
  61 002c 4FF48172 		mov	r2, #258
  62 0030 01FA03F1 		lsl	r1, r1, r3
  63 0034 FFF7FEFF 		bl	_pal_lld_setgroupmode
  64              	.LVL2:
  65              		.loc 1 23 0
  66 0038 A868     		ldr	r0, [r5, #8]
  67 003a 2146     		mov	r1, r4
  68              		.loc 1 24 0
  69 003c BDE83840 		pop	{r3, r4, r5, lr}
  70              		.loc 1 23 0
  71 0040 FFF7FEBF 		b	pwmStart
  72              	.LVL3:
  73              		.cfi_endproc
  74              	.LFE118:
  75              		.size	servoInit, .-servoInit
  76 0044 AFF30080 		.section	.text.servoSetValue,"ax",%progbits
  76      AFF30080 
  76      AFF30080 
  77              		.align	2
  78              		.p2align 4,,15
  79              		.global	servoSetValue
  80              		.thumb
  81              		.thumb_func
  82              		.type	servoSetValue, %function
  83              	servoSetValue:
  84              	.LFB119:
  85              		.loc 1 26 0
  86              		.cfi_startproc
  87              		@ args = 0, pretend = 0, frame = 0
  88              		@ frame_needed = 0, uses_anonymous_args = 0
  89              		@ link register save eliminated.
  90              	.LVL4:
  91 0000 10B4     		push	{r4}
  92              	.LCFI1:
  93              		.cfi_def_cfa_offset 4
  94              		.cfi_offset 4, -4
  95              		.loc 1 26 0
  96 0002 0346     		mov	r3, r0
  97              		.loc 1 27 0
  98 0004 028A     		ldrh	r2, [r0, #16]
  99              		.loc 1 29 0
 100 0006 C489     		ldrh	r4, [r0, #14]
 101              		.loc 1 32 0
 102 0008 8068     		ldr	r0, [r0, #8]
 103              	.LVL5:
 104 000a 9142     		cmp	r1, r2
 105 000c 38BF     		it	cc
 106 000e 0A46     		movcc	r2, r1
 107              	.LVL6:
 108 0010 197B     		ldrb	r1, [r3, #12]	@ zero_extendqisi2
 109 0012 A242     		cmp	r2, r4
 110 0014 38BF     		it	cc
 111 0016 2246     		movcc	r2, r4
 112              	.LVL7:
ARM GAS  C:\Users\Gaetano\AppData\Local\Temp\cc5Hlu00.s 			page 3


 113              		.loc 1 33 0
 114 0018 10BC     		pop	{r4}
 115              		.loc 1 32 0
 116 001a FFF7FEBF 		b	pwmEnableChannel
 117              	.LVL8:
 118              		.cfi_endproc
 119              	.LFE119:
 120              		.size	servoSetValue, .-servoSetValue
 121 001e 00BF     		.section	.text.servoSetMax,"ax",%progbits
 122              		.align	2
 123              		.p2align 4,,15
 124              		.global	servoSetMax
 125              		.thumb
 126              		.thumb_func
 127              		.type	servoSetMax, %function
 128              	servoSetMax:
 129              	.LFB120:
 130              		.loc 1 35 0
 131              		.cfi_startproc
 132              		@ args = 0, pretend = 0, frame = 0
 133              		@ frame_needed = 0, uses_anonymous_args = 0
 134              		@ link register save eliminated.
 135              	.LVL9:
 136              		.loc 1 36 0
 137 0000 0182     		strh	r1, [r0, #16]	@ movhi
 138 0002 7047     		bx	lr
 139              		.cfi_endproc
 140              	.LFE120:
 141              		.size	servoSetMax, .-servoSetMax
 142 0004 AFF30080 		.section	.text.servoSetMin,"ax",%progbits
 142      AFF30080 
 142      AFF30080 
 143              		.align	2
 144              		.p2align 4,,15
 145              		.global	servoSetMin
 146              		.thumb
 147              		.thumb_func
 148              		.type	servoSetMin, %function
 149              	servoSetMin:
 150              	.LFB121:
 151              		.loc 1 39 0
 152              		.cfi_startproc
 153              		@ args = 0, pretend = 0, frame = 0
 154              		@ frame_needed = 0, uses_anonymous_args = 0
 155              		@ link register save eliminated.
 156              	.LVL10:
 157              		.loc 1 40 0
 158 0000 C181     		strh	r1, [r0, #14]	@ movhi
 159 0002 7047     		bx	lr
 160              		.cfi_endproc
 161              	.LFE121:
 162              		.size	servoSetMin, .-servoSetMin
 163 0004 AFF30080 		.section	.text.servoGetMax,"ax",%progbits
 163      AFF30080 
 163      AFF30080 
 164              		.align	2
 165              		.p2align 4,,15
ARM GAS  C:\Users\Gaetano\AppData\Local\Temp\cc5Hlu00.s 			page 4


 166              		.global	servoGetMax
 167              		.thumb
 168              		.thumb_func
 169              		.type	servoGetMax, %function
 170              	servoGetMax:
 171              	.LFB122:
 172              		.loc 1 43 0
 173              		.cfi_startproc
 174              		@ args = 0, pretend = 0, frame = 0
 175              		@ frame_needed = 0, uses_anonymous_args = 0
 176              		@ link register save eliminated.
 177              	.LVL11:
 178              		.loc 1 45 0
 179 0000 008A     		ldrh	r0, [r0, #16]
 180              	.LVL12:
 181 0002 7047     		bx	lr
 182              		.cfi_endproc
 183              	.LFE122:
 184              		.size	servoGetMax, .-servoGetMax
 185 0004 AFF30080 		.section	.text.servoGetMin,"ax",%progbits
 185      AFF30080 
 185      AFF30080 
 186              		.align	2
 187              		.p2align 4,,15
 188              		.global	servoGetMin
 189              		.thumb
 190              		.thumb_func
 191              		.type	servoGetMin, %function
 192              	servoGetMin:
 193              	.LFB123:
 194              		.loc 1 47 0
 195              		.cfi_startproc
 196              		@ args = 0, pretend = 0, frame = 0
 197              		@ frame_needed = 0, uses_anonymous_args = 0
 198              		@ link register save eliminated.
 199              	.LVL13:
 200              		.loc 1 49 0
 201 0000 C089     		ldrh	r0, [r0, #14]
 202              	.LVL14:
 203 0002 7047     		bx	lr
 204              		.cfi_endproc
 205              	.LFE123:
 206              		.size	servoGetMin, .-servoGetMin
 207 0004 AFF30080 		.section	.data.pwmcfg,"aw",%progbits
 207      AFF30080 
 207      AFF30080 
 208              		.align	2
 209              		.set	.LANCHOR0,. + 0
 210              		.type	pwmcfg, %object
 211              		.size	pwmcfg, 52
 212              	pwmcfg:
 213 0000 40420F00 		.word	1000000
 214 0004 D007     		.short	2000
 215 0006 0000     		.space	2
 216 0008 00000000 		.word	0
 217 000c 00000000 		.word	0
 218 0010 00000000 		.word	0
ARM GAS  C:\Users\Gaetano\AppData\Local\Temp\cc5Hlu00.s 			page 5


 219 0014 00000000 		.space	24
 219      00000000 
 219      00000000 
 219      00000000 
 219      00000000 
 220 002c 00000000 		.space	8
 220      00000000 
 221              		.text
 222              	.Letext0:
 223              		.file 2 "c:\\chibistudio\\tools\\gnu tools arm embedded\\4.7 2014q2\\bin\\../lib/gcc/arm-none-eabi
 224              		.file 3 "../../os/hal/platforms/STM32/GPIOv2/pal_lld.h"
 225              		.file 4 "../../os/hal/include/pwm.h"
 226              		.file 5 "../../os/hal/platforms/STM32/TIMv1/pwm_lld.h"
 227              		.file 6 "../../os/hal/platforms/STM32/TIMv1/stm32_tim.h"
 228              		.file 7 "servo.h"
 229              		.file 8 "../../os/ports/common/ARMCMx/CMSIS/include/core_cm4.h"